target datalayout = "e-m:e-p270:32:32-p271:32:32-p272:64:64-i64:64-i128:128-f80:128-n8:16:32:64-S128"
target triple = "x86_64-pc-linux-gnu"

@.str.28 = private unnamed_addr constant [26 x i8] c"\0AFinal Run Statistics: \0A\0A\00", align 1
@.str.29 = private unnamed_addr constant [42 x i8] c"Number of steps                    = %ld\0A\00", align 1
@.str.30 = private unnamed_addr constant [42 x i8] c"Number of residual evaluations     = %ld\0A\00", align 1
@.str.31 = private unnamed_addr constant [42 x i8] c"Number of Jacobian evaluations     = %ld\0A\00", align 1
@.str.32 = private unnamed_addr constant [42 x i8] c"Number of nonlinear iterations     = %ld\0A\00", align 1
@.str.33 = private unnamed_addr constant [42 x i8] c"Number of error test failures      = %ld\0A\00", align 1
@.str.34 = private unnamed_addr constant [42 x i8] c"Number of nonlinear conv. failures = %ld\0A\00", align 1

; Function Attrs: nounwind uwtable
define internal i32 @PrintFinalStats(ptr noundef %0) #0 {
  %2 = alloca ptr, align 8
  %3 = alloca i32, align 4
  %4 = alloca i64, align 8
  %5 = alloca i64, align 8
  %6 = alloca i64, align 8
  %7 = alloca i64, align 8
  %8 = alloca i64, align 8
  %9 = alloca i64, align 8
  %10 = alloca i64, align 8
  store ptr %0, ptr %2, align 8, !tbaa !8
  call void @llvm.lifetime.start.p0(i64 4, ptr %3) #6
  call void @llvm.lifetime.start.p0(i64 8, ptr %4) #6
  call void @llvm.lifetime.start.p0(i64 8, ptr %5) #6
  call void @llvm.lifetime.start.p0(i64 8, ptr %6) #6
  call void @llvm.lifetime.start.p0(i64 8, ptr %7) #6
  call void @llvm.lifetime.start.p0(i64 8, ptr %8) #6
  call void @llvm.lifetime.start.p0(i64 8, ptr %9) #6
  call void @llvm.lifetime.start.p0(i64 8, ptr %10) #6
  %11 = load ptr, ptr %2, align 8, !tbaa !8
  %12 = call i32 @IDAGetNumSteps(ptr noundef %11, ptr noundef %4)
  store i32 %12, ptr %3, align 4, !tbaa !16
  %13 = load ptr, ptr %2, align 8, !tbaa !8
  %14 = call i32 @IDAGetNumResEvals(ptr noundef %13, ptr noundef %7)
  store i32 %14, ptr %3, align 4, !tbaa !16
  %15 = load ptr, ptr %2, align 8, !tbaa !8
  %16 = call i32 @IDAGetNumJacEvals(ptr noundef %15, ptr noundef %6)
  store i32 %16, ptr %3, align 4, !tbaa !16
  %17 = load ptr, ptr %2, align 8, !tbaa !8
  %18 = call i32 @IDAGetNumNonlinSolvIters(ptr noundef %17, ptr noundef %5)
  store i32 %18, ptr %3, align 4, !tbaa !16
  %19 = load ptr, ptr %2, align 8, !tbaa !8
  %20 = call i32 @IDAGetNumErrTestFails(ptr noundef %19, ptr noundef %9)
  store i32 %20, ptr %3, align 4, !tbaa !16
  %21 = load ptr, ptr %2, align 8, !tbaa !8
  %22 = call i32 @IDAGetNumNonlinSolvConvFails(ptr noundef %21, ptr noundef %10)
  store i32 %22, ptr %3, align 4, !tbaa !16
  %23 = load ptr, ptr %2, align 8, !tbaa !8
  %24 = call i32 @IDAGetNumLinResEvals(ptr noundef %23, ptr noundef %8)
  store i32 %24, ptr %3, align 4, !tbaa !16
  %25 = call i32 (ptr, ...) @printf(ptr noundef @.str.28)
  %26 = load i64, ptr %4, align 8, !tbaa !44
  %27 = call i32 (ptr, ...) @printf(ptr noundef @.str.29, i64 noundef %26)
  %28 = load i64, ptr %7, align 8, !tbaa !44
  %29 = load i64, ptr %8, align 8, !tbaa !44
  %30 = add nsw i64 %28, %29
  %31 = call i32 (ptr, ...) @printf(ptr noundef @.str.30, i64 noundef %30)
  %32 = load i64, ptr %6, align 8, !tbaa !44
  %33 = call i32 (ptr, ...) @printf(ptr noundef @.str.31, i64 noundef %32)
  %34 = load i64, ptr %5, align 8, !tbaa !44
  %35 = call i32 (ptr, ...) @printf(ptr noundef @.str.32, i64 noundef %34)
  %36 = load i64, ptr %9, align 8, !tbaa !44
  %37 = call i32 (ptr, ...) @printf(ptr noundef @.str.33, i64 noundef %36)
  %38 = load i64, ptr %10, align 8, !tbaa !44
  %39 = call i32 (ptr, ...) @printf(ptr noundef @.str.34, i64 noundef %38)
  %40 = load i32, ptr %3, align 4, !tbaa !16
  call void @llvm.lifetime.end.p0(i64 8, ptr %10) #6
  call void @llvm.lifetime.end.p0(i64 8, ptr %9) #6
  call void @llvm.lifetime.end.p0(i64 8, ptr %8) #6
  call void @llvm.lifetime.end.p0(i64 8, ptr %7) #6
  call void @llvm.lifetime.end.p0(i64 8, ptr %6) #6
  call void @llvm.lifetime.end.p0(i64 8, ptr %5) #6
  call void @llvm.lifetime.end.p0(i64 8, ptr %4) #6
  call void @llvm.lifetime.end.p0(i64 4, ptr %3) #6
  ret i32 %40
}